target datalayout = "e-m:e-p270:32:32-p271:32:32-p272:64:64-i64:64-i128:128-f80:128-n8:16:32:64-S128"
target triple = "x86_64-pc-linux-gnu"

%struct.pg_compress_specification = type { i32, i32, i32, i32, i8, ptr }
%struct._archiveHandle = type { %struct.Archive, i32, ptr, ptr, i64, i64, i32, %struct.sqlparseInfo, i64, i32, ptr, i64, i64, i64, ptr, ptr, ptr, ptr, ptr, ptr, ptr, ptr, ptr, ptr, ptr, ptr, ptr, ptr, ptr, ptr, ptr, ptr, ptr, ptr, ptr, ptr, ptr, ptr, ptr, ptr, ptr, ptr, ptr, ptr, i32, i32, i8, i32, i8, i32, ptr, ptr, ptr, ptr, i32, i32, ptr, ptr, ptr, %struct.pg_compress_specification, i8, i32, i32, ptr, ptr, ptr, ptr, ptr, i32, ptr, i64, i64, i32, i32, i32, i32, ptr, ptr }
%struct.Archive = type { ptr, ptr, i32, ptr, i32, i8, i32, i32, i32, ptr, i32, i8, ptr, ptr, i8, i32, ptr }
%struct.sqlparseInfo = type { i32, i8, ptr }
%struct._tocEntry = type { ptr, ptr, %struct.CatalogId, i32, i32, i8, ptr, ptr, ptr, ptr, i8, ptr, ptr, ptr, ptr, ptr, ptr, i32, ptr, ptr, ptr, i64, i32, i8, ptr, ptr, i32, ptr, i32, ptr, i32 }
%struct.CatalogId = type { i32, i32 }

@.str.95 = private unnamed_addr constant [11 x i8] c"TABLE DATA\00", align 1
@.str.203 = private unnamed_addr constant [11 x i8] c"bad dumpId\00", align 1
@.str.204 = private unnamed_addr constant [37 x i8] c"bad table dumpId for TABLE DATA item\00", align 1

; Function Attrs: nounwind uwtable
define internal void @buildTocEntryArrays(ptr noundef %0) #0 {
  %2 = alloca ptr, align 8
  %3 = alloca i32, align 4
  %4 = alloca ptr, align 8
  %5 = alloca i32, align 4
  store ptr %0, ptr %2, align 8
  call void @llvm.lifetime.start.p0(i64 4, ptr %3) #11
  %6 = load ptr, ptr %2, align 8
  %7 = getelementptr inbounds nuw %struct._archiveHandle, ptr %6, i32 0, i32 55
  %8 = load i32, ptr %7, align 4
  store i32 %8, ptr %3, align 4
  call void @llvm.lifetime.start.p0(i64 8, ptr %4) #11
  %9 = load i32, ptr %3, align 4
  %10 = add i32 %9, 1
  %11 = sext i32 %10 to i64
  %12 = mul i64 %11, 8
  %13 = call ptr @pg_malloc0(i64 noundef %12)
  %14 = load ptr, ptr %2, align 8
  %15 = getelementptr inbounds nuw %struct._archiveHandle, ptr %14, i32 0, i32 56
  store ptr %13, ptr %15, align 8
  %16 = load i32, ptr %3, align 4
  %17 = add i32 %16, 1
  %18 = sext i32 %17 to i64
  %19 = mul i64 %18, 4
  %20 = call ptr @pg_malloc0(i64 noundef %19)
  %21 = load ptr, ptr %2, align 8
  %22 = getelementptr inbounds nuw %struct._archiveHandle, ptr %21, i32 0, i32 57
  store ptr %20, ptr %22, align 8
  %23 = load ptr, ptr %2, align 8
  %24 = getelementptr inbounds nuw %struct._archiveHandle, ptr %23, i32 0, i32 53
  %25 = load ptr, ptr %24, align 8
  %26 = getelementptr inbounds nuw %struct._tocEntry, ptr %25, i32 0, i32 1
  %27 = load ptr, ptr %26, align 8
  store ptr %27, ptr %4, align 8
  br label %28

28:                                               ; preds = %96, %1
  %29 = load ptr, ptr %4, align 8
  %30 = load ptr, ptr %2, align 8
  %31 = getelementptr inbounds nuw %struct._archiveHandle, ptr %30, i32 0, i32 53
  %32 = load ptr, ptr %31, align 8
  %33 = icmp ne ptr %29, %32
  br i1 %33, label %34, label %100

34:                                               ; preds = %28
  %35 = load ptr, ptr %4, align 8
  %36 = getelementptr inbounds nuw %struct._tocEntry, ptr %35, i32 0, i32 3
  %37 = load i32, ptr %36, align 8
  %38 = icmp sle i32 %37, 0
  br i1 %38, label %45, label %39

39:                                               ; preds = %34
  %40 = load ptr, ptr %4, align 8
  %41 = getelementptr inbounds nuw %struct._tocEntry, ptr %40, i32 0, i32 3
  %42 = load i32, ptr %41, align 8
  %43 = load i32, ptr %3, align 4
  %44 = icmp sgt i32 %42, %43
  br i1 %44, label %45, label %49

45:                                               ; preds = %39, %34
  br label %46

46:                                               ; preds = %45
  call void (i32, i32, ptr, ...) @pg_log_generic(i32 noundef 4, i32 noundef 0, ptr noundef @.str.203)
  call void @exit_nicely(i32 noundef 1) #12
  unreachable

47:                                               ; No predecessors!
  br label %48

48:                                               ; preds = %47
  br label %49

49:                                               ; preds = %48, %39
  %50 = load ptr, ptr %4, align 8
  %51 = load ptr, ptr %2, align 8
  %52 = getelementptr inbounds nuw %struct._archiveHandle, ptr %51, i32 0, i32 56
  %53 = load ptr, ptr %52, align 8
  %54 = load ptr, ptr %4, align 8
  %55 = getelementptr inbounds nuw %struct._tocEntry, ptr %54, i32 0, i32 3
  %56 = load i32, ptr %55, align 8
  %57 = sext i32 %56 to i64
  %58 = getelementptr inbounds ptr, ptr %53, i64 %57
  store ptr %50, ptr %58, align 8
  %59 = load ptr, ptr %4, align 8
  %60 = getelementptr inbounds nuw %struct._tocEntry, ptr %59, i32 0, i32 12
  %61 = load ptr, ptr %60, align 8
  %62 = call i32 @strcmp(ptr noundef %61, ptr noundef @.str.95) #14
  %63 = icmp eq i32 %62, 0
  br i1 %63, label %64, label %95

64:                                               ; preds = %49
  %65 = load ptr, ptr %4, align 8
  %66 = getelementptr inbounds nuw %struct._tocEntry, ptr %65, i32 0, i32 17
  %67 = load i32, ptr %66, align 8
  %68 = icmp sgt i32 %67, 0
  br i1 %68, label %69, label %95

69:                                               ; preds = %64
  call void @llvm.lifetime.start.p0(i64 4, ptr %5) #11
  %70 = load ptr, ptr %4, align 8
  %71 = getelementptr inbounds nuw %struct._tocEntry, ptr %70, i32 0, i32 16
  %72 = load ptr, ptr %71, align 8
  %73 = getelementptr inbounds i32, ptr %72, i64 0
  %74 = load i32, ptr %73, align 4
  store i32 %74, ptr %5, align 4
  %75 = load i32, ptr %5, align 4
  %76 = icmp sle i32 %75, 0
  br i1 %76, label %81, label %77

77:                                               ; preds = %69
  %78 = load i32, ptr %5, align 4
  %79 = load i32, ptr %3, align 4
  %80 = icmp sgt i32 %78, %79
  br i1 %80, label %81, label %85

81:                                               ; preds = %77, %69
  br label %82

82:                                               ; preds = %81
  call void (i32, i32, ptr, ...) @pg_log_generic(i32 noundef 4, i32 noundef 0, ptr noundef @.str.204)
  call void @exit_nicely(i32 noundef 1) #12
  unreachable

83:                                               ; No predecessors!
  br label %84

84:                                               ; preds = %83
  br label %85

85:                                               ; preds = %84, %77
  %86 = load ptr, ptr %4, align 8
  %87 = getelementptr inbounds nuw %struct._tocEntry, ptr %86, i32 0, i32 3
  %88 = load i32, ptr %87, align 8
  %89 = load ptr, ptr %2, align 8
  %90 = getelementptr inbounds nuw %struct._archiveHandle, ptr %89, i32 0, i32 57
  %91 = load ptr, ptr %90, align 8
  %92 = load i32, ptr %5, align 4
  %93 = sext i32 %92 to i64
  %94 = getelementptr inbounds i32, ptr %91, i64 %93
  store i32 %88, ptr %94, align 4
  call void @llvm.lifetime.end.p0(i64 4, ptr %5) #11
  br label %95

95:                                               ; preds = %85, %64, %49
  br label %96

96:                                               ; preds = %95
  %97 = load ptr, ptr %4, align 8
  %98 = getelementptr inbounds nuw %struct._tocEntry, ptr %97, i32 0, i32 1
  %99 = load ptr, ptr %98, align 8
  store ptr %99, ptr %4, align 8
  br label %28, !llvm.loop !15

100:                                              ; preds = %28
  call void @llvm.lifetime.end.p0(i64 8, ptr %4) #11
  call void @llvm.lifetime.end.p0(i64 4, ptr %3) #11
  ret void
}