; Function Attrs: nounwind uwtable
define internal fastcc void @buildTocEntryArrays(ptr noundef captures(none) initializes((520, 536)) %0) unnamed_addr #0 {
  %2 = getelementptr inbounds nuw i8, ptr %0, i64 516
  %3 = load i32, ptr %2, align 4
  %4 = add i32 %3, 1
  %5 = sext i32 %4 to i64
  %6 = shl nsw i64 %5, 3
  %7 = tail call ptr @pg_malloc0(i64 noundef %6) #22
  %8 = getelementptr inbounds nuw i8, ptr %0, i64 520
  store ptr %7, ptr %8, align 8
  %9 = shl nsw i64 %5, 2
  %10 = tail call ptr @pg_malloc0(i64 noundef %9) #22
  %11 = getelementptr inbounds nuw i8, ptr %0, i64 528
  store ptr %10, ptr %11, align 8
  %12 = getelementptr inbounds nuw i8, ptr %0, i64 504
  %13 = load ptr, ptr %12, align 8
  %.0.in27 = getelementptr inbounds nuw i8, ptr %13, i64 8
  %.028 = load ptr, ptr %.0.in27, align 8
  %.not29 = icmp eq ptr %.028, %13
  br i1 %.not29, label %._crit_edge, label %.lr.ph

.lr.ph:                                           ; preds = %1, %43
  %.030 = phi ptr [ %.0, %43 ], [ %.028, %1 ]
  %14 = getelementptr inbounds nuw i8, ptr %.030, i64 24
  %15 = load i32, ptr %14, align 8
  %16 = icmp slt i32 %15, 1
  %17 = icmp sgt i32 %15, %3
  %or.cond = or i1 %16, %17
  br i1 %or.cond, label %18, label %19

18:                                               ; preds = %.lr.ph
  tail call void (i32, i32, ptr, ...) @pg_log_generic(i32 noundef 4, i32 noundef 0, ptr noundef nonnull @.str.203) #22
  tail call void @exit_nicely(i32 noundef 1) #23
  unreachable

19:                                               ; preds = %.lr.ph
  %20 = load ptr, ptr %8, align 8
  %21 = zext nneg i32 %15 to i64
  %22 = getelementptr inbounds nuw ptr, ptr %20, i64 %21
  store ptr %.030, ptr %22, align 8
  %23 = getelementptr inbounds nuw i8, ptr %.030, i64 88
  %24 = load ptr, ptr %23, align 8
  %25 = tail call i32 @strcmp(ptr noundef nonnull dereferenceable(1) %24, ptr noundef nonnull dereferenceable(11) @.str.95) #24
  %26 = icmp eq i32 %25, 0
  br i1 %26, label %27, label %43

27:                                               ; preds = %19
  %28 = getelementptr inbounds nuw i8, ptr %.030, i64 128
  %29 = load i32, ptr %28, align 8
  %30 = icmp sgt i32 %29, 0
  br i1 %30, label %31, label %43

31:                                               ; preds = %27
  %32 = getelementptr inbounds nuw i8, ptr %.030, i64 120
  %33 = load ptr, ptr %32, align 8
  %34 = load i32, ptr %33, align 4
  %35 = icmp slt i32 %34, 1
  %36 = icmp sgt i32 %34, %3
  %or.cond26 = or i1 %35, %36
  br i1 %or.cond26, label %37, label %38

37:                                               ; preds = %31
  tail call void (i32, i32, ptr, ...) @pg_log_generic(i32 noundef 4, i32 noundef 0, ptr noundef nonnull @.str.204) #22
  tail call void @exit_nicely(i32 noundef 1) #23
  unreachable

38:                                               ; preds = %31
  %39 = load i32, ptr %14, align 8
  %40 = load ptr, ptr %11, align 8
  %41 = zext nneg i32 %34 to i64
  %42 = getelementptr inbounds nuw i32, ptr %40, i64 %41
  store i32 %39, ptr %42, align 4
  br label %43

43:                                               ; preds = %19, %27, %38
  %.0.in = getelementptr inbounds nuw i8, ptr %.030, i64 8
  %.0 = load ptr, ptr %.0.in, align 8
  %44 = load ptr, ptr %12, align 8
  %.not = icmp eq ptr %.0, %44
  br i1 %.not, label %._crit_edge, label %.lr.ph, !llvm.loop !38

._crit_edge:                                      ; preds = %43, %1
  ret void
}